; Function Attrs: mustprogress uwtable
define internal void @_ZL13stbiw__writefP19stbi__write_contextPKcz(ptr noundef nonnull readonly captures(none) %0, ptr readnone captures(none) %1, ...) unnamed_addr #4 {
  %3 = alloca [1 x %struct.__va_list_tag], align 16
  call void @llvm.lifetime.start.p0(i64 24, ptr nonnull %3) #35
  call void @llvm.va_start.p0(ptr nonnull %3)
  call fastcc void @_ZL14stbiw__writefvP19stbi__write_contextPKcP13__va_list_tag(ptr noundef %0, ptr noundef nonnull @.str.85, ptr noundef %3)
  call void @llvm.va_end.p0(ptr nonnull %3)
  call void @llvm.lifetime.end.p0(i64 24, ptr nonnull %3) #35
  ret void
}